target datalayout = "e-m:e-p270:32:32-p271:32:32-p272:64:64-i64:64-i128:128-f80:128-n8:16:32:64-S128"
target triple = "x86_64-pc-linux-gnu"

%"class.folly::Range" = type { ptr, ptr }

@_ZTISt13runtime_error = external constant ptr
@.str.61 = private unnamed_addr constant [45 x i8] c"SSL certificate and private key do not match\00", align 1

; Function Attrs: mustprogress uwtable
define void @_ZN5folly10SSLContext28loadCertKeyPairFromBufferPEMENS_5RangeIPKcEES4_(ptr noundef nonnull align 8 dereferenceable(304) %0, ptr %1, ptr %2, ptr %3, ptr %4) unnamed_addr #2 align 2 personality ptr @__gxx_personality_v0 {
  %6 = alloca %"class.folly::Range", align 8
  %7 = alloca %"class.folly::Range", align 8
  %8 = alloca ptr, align 8
  %9 = alloca %"class.folly::Range", align 8
  %10 = alloca %"class.folly::Range", align 8
  %11 = alloca ptr, align 8
  %12 = alloca i32, align 4
  %13 = getelementptr inbounds nuw { ptr, ptr }, ptr %6, i32 0, i32 0
  store ptr %1, ptr %13, align 8
  %14 = getelementptr inbounds nuw { ptr, ptr }, ptr %6, i32 0, i32 1
  store ptr %2, ptr %14, align 8
  %15 = getelementptr inbounds nuw { ptr, ptr }, ptr %7, i32 0, i32 0
  store ptr %3, ptr %15, align 8
  %16 = getelementptr inbounds nuw { ptr, ptr }, ptr %7, i32 0, i32 1
  store ptr %4, ptr %16, align 8
  store ptr %0, ptr %8, align 8, !tbaa !7
  %17 = load ptr, ptr %8, align 8
  call void @llvm.memcpy.p0.p0.i64(ptr align 8 %9, ptr align 8 %6, i64 16, i1 false), !tbaa.struct !94
  %18 = getelementptr inbounds nuw { ptr, ptr }, ptr %9, i32 0, i32 0
  %19 = load ptr, ptr %18, align 8
  %20 = getelementptr inbounds nuw { ptr, ptr }, ptr %9, i32 0, i32 1
  %21 = load ptr, ptr %20, align 8
  %22 = load ptr, ptr %17, align 8, !tbaa !14
  %23 = getelementptr inbounds ptr, ptr %22, i64 12
  %24 = load ptr, ptr %23, align 8
  call void %24(ptr noundef nonnull align 8 dereferenceable(304) %17, ptr %19, ptr %21)
  call void @llvm.memcpy.p0.p0.i64(ptr align 8 %10, ptr align 8 %7, i64 16, i1 false), !tbaa.struct !94
  %25 = getelementptr inbounds nuw { ptr, ptr }, ptr %10, i32 0, i32 0
  %26 = load ptr, ptr %25, align 8
  %27 = getelementptr inbounds nuw { ptr, ptr }, ptr %10, i32 0, i32 1
  %28 = load ptr, ptr %27, align 8
  %29 = load ptr, ptr %17, align 8, !tbaa !14
  %30 = getelementptr inbounds ptr, ptr %29, i64 14
  %31 = load ptr, ptr %30, align 8
  call void %31(ptr noundef nonnull align 8 dereferenceable(304) %17, ptr %26, ptr %28)
  %32 = load ptr, ptr %17, align 8, !tbaa !14
  %33 = getelementptr inbounds ptr, ptr %32, i64 18
  %34 = load ptr, ptr %33, align 8
  %35 = call noundef zeroext i1 %34(ptr noundef nonnull align 8 dereferenceable(304) %17)
  br i1 %35, label %43, label %36

36:                                               ; preds = %5
  %37 = call ptr @__cxa_allocate_exception(i64 16) #26
  invoke void @_ZNSt13runtime_errorC1EPKc(ptr noundef nonnull align 8 dereferenceable(16) %37, ptr noundef @.str.61)
          to label %38 unwind label %39

38:                                               ; preds = %36
  call void @__cxa_throw(ptr %37, ptr @_ZTISt13runtime_error, ptr @_ZNSt13runtime_errorD1Ev) #28
  unreachable

39:                                               ; preds = %36
  %40 = landingpad { ptr, i32 }
          cleanup
  %41 = extractvalue { ptr, i32 } %40, 0
  store ptr %41, ptr %11, align 8
  %42 = extractvalue { ptr, i32 } %40, 1
  store i32 %42, ptr %12, align 4
  call void @__cxa_free_exception(ptr %37) #26
  br label %44

43:                                               ; preds = %5
  ret void

44:                                               ; preds = %39
  %45 = load ptr, ptr %11, align 8
  %46 = load i32, ptr %12, align 4
  %47 = insertvalue { ptr, i32 } poison, ptr %45, 0
  %48 = insertvalue { ptr, i32 } %47, i32 %46, 1
  resume { ptr, i32 } %48
}